target datalayout = "e-m:e-p270:32:32-p271:32:32-p272:64:64-i64:64-i128:128-f80:128-n8:16:32:64-S128"
target triple = "x86_64-pc-linux-gnu"

%struct._header_field_info = type { ptr, ptr, i32, i32, ptr, i64, ptr, i32, i32, i32, i32, ptr }

@.str.2 = private unnamed_addr constant [39 x i8] c"(?:^ *| *\\|\\| *| +or +| *$)(?![^(]*\\))\00", align 1

; Function Attrs: null_pointer_is_valid sspstrong uwtable
define hidden zeroext i1 @column_prefs_custom_display_strings(ptr noundef %0) #1 {
  %2 = alloca ptr, align 8
  %3 = alloca ptr, align 8
  %4 = alloca ptr, align 8
  %5 = alloca i8, align 1
  %6 = alloca i32, align 4
  %7 = alloca i32, align 4
  store ptr %0, ptr %2, align 8
  call void @llvm.lifetime.start.p0(i64 8, ptr %3) #9
  call void @llvm.lifetime.start.p0(i64 8, ptr %4) #9
  call void @llvm.lifetime.start.p0(i64 1, ptr %5) #9
  store i8 0, ptr %5, align 1
  %8 = load ptr, ptr %2, align 8
  %9 = call ptr @g_regex_split_simple(ptr noundef @.str.2, ptr noundef %8, i32 noundef 2048, i32 noundef 0)
  store ptr %9, ptr %3, align 8
  call void @llvm.lifetime.start.p0(i64 4, ptr %6) #9
  store i32 0, ptr %6, align 4
  br label %10

10:                                               ; preds = %179, %1
  %11 = load i32, ptr %6, align 4
  %12 = load ptr, ptr %3, align 8
  %13 = call i32 @g_strv_length(ptr noundef %12)
  %14 = icmp ult i32 %11, %13
  br i1 %14, label %16, label %15

15:                                               ; preds = %10
  store i32 2, ptr %7, align 4
  br label %182

16:                                               ; preds = %10
  %17 = load ptr, ptr %3, align 8
  %18 = load i32, ptr %6, align 4
  %19 = zext i32 %18 to i64
  %20 = getelementptr ptr, ptr %17, i64 %19
  %21 = load ptr, ptr %20, align 8
  %22 = icmp ne ptr %21, null
  br i1 %22, label %23, label %178

23:                                               ; preds = %16
  %24 = load ptr, ptr %3, align 8
  %25 = load i32, ptr %6, align 4
  %26 = zext i32 %25 to i64
  %27 = getelementptr ptr, ptr %24, i64 %26
  %28 = load ptr, ptr %27, align 8
  %29 = load i8, ptr %28, align 1
  %30 = sext i8 %29 to i32
  %31 = icmp ne i32 %30, 0
  br i1 %31, label %32, label %178

32:                                               ; preds = %23
  %33 = load ptr, ptr %3, align 8
  %34 = load i32, ptr %6, align 4
  %35 = zext i32 %34 to i64
  %36 = getelementptr ptr, ptr %33, i64 %35
  %37 = load ptr, ptr %36, align 8
  %38 = call ptr @proto_registrar_get_byname(ptr noundef %37)
  store ptr %38, ptr %4, align 8
  %39 = load ptr, ptr %4, align 8
  %40 = icmp ne ptr %39, null
  br i1 %40, label %41, label %177

41:                                               ; preds = %32
  %42 = load ptr, ptr %4, align 8
  %43 = getelementptr inbounds nuw %struct._header_field_info, ptr %42, i32 0, i32 2
  %44 = load i32, ptr %43, align 8
  %45 = icmp eq i32 %44, 37
  br i1 %45, label %176, label %46

46:                                               ; preds = %41
  %47 = load ptr, ptr %4, align 8
  %48 = getelementptr inbounds nuw %struct._header_field_info, ptr %47, i32 0, i32 2
  %49 = load i32, ptr %48, align 8
  %50 = icmp eq i32 %49, 41
  br i1 %50, label %176, label %51

51:                                               ; preds = %46
  %52 = load ptr, ptr %4, align 8
  %53 = getelementptr inbounds nuw %struct._header_field_info, ptr %52, i32 0, i32 2
  %54 = load i32, ptr %53, align 8
  %55 = icmp eq i32 %54, 29
  br i1 %55, label %176, label %56

56:                                               ; preds = %51
  %57 = load ptr, ptr %4, align 8
  %58 = getelementptr inbounds nuw %struct._header_field_info, ptr %57, i32 0, i32 2
  %59 = load i32, ptr %58, align 8
  %60 = icmp eq i32 %59, 30
  br i1 %60, label %176, label %61

61:                                               ; preds = %56
  %62 = load ptr, ptr %4, align 8
  %63 = getelementptr inbounds nuw %struct._header_field_info, ptr %62, i32 0, i32 2
  %64 = load i32, ptr %63, align 8
  %65 = icmp eq i32 %64, 32
  br i1 %65, label %176, label %66

66:                                               ; preds = %61
  %67 = load ptr, ptr %4, align 8
  %68 = getelementptr inbounds nuw %struct._header_field_info, ptr %67, i32 0, i32 2
  %69 = load i32, ptr %68, align 8
  %70 = icmp eq i32 %69, 33
  br i1 %70, label %176, label %71

71:                                               ; preds = %66
  %72 = load ptr, ptr %4, align 8
  %73 = getelementptr inbounds nuw %struct._header_field_info, ptr %72, i32 0, i32 2
  %74 = load i32, ptr %73, align 8
  %75 = icmp eq i32 %74, 44
  br i1 %75, label %176, label %76

76:                                               ; preds = %71
  %77 = load ptr, ptr %4, align 8
  %78 = getelementptr inbounds nuw %struct._header_field_info, ptr %77, i32 0, i32 2
  %79 = load i32, ptr %78, align 8
  %80 = icmp eq i32 %79, 2
  br i1 %80, label %176, label %81

81:                                               ; preds = %76
  %82 = load ptr, ptr %4, align 8
  %83 = getelementptr inbounds nuw %struct._header_field_info, ptr %82, i32 0, i32 4
  %84 = load ptr, ptr %83, align 8
  %85 = icmp ne ptr %84, null
  br i1 %85, label %86, label %177

86:                                               ; preds = %81
  %87 = load ptr, ptr %4, align 8
  %88 = getelementptr inbounds nuw %struct._header_field_info, ptr %87, i32 0, i32 2
  %89 = load i32, ptr %88, align 8
  %90 = icmp eq i32 %89, 12
  br i1 %90, label %176, label %91

91:                                               ; preds = %86
  %92 = load ptr, ptr %4, align 8
  %93 = getelementptr inbounds nuw %struct._header_field_info, ptr %92, i32 0, i32 2
  %94 = load i32, ptr %93, align 8
  %95 = icmp eq i32 %94, 13
  br i1 %95, label %176, label %96

96:                                               ; preds = %91
  %97 = load ptr, ptr %4, align 8
  %98 = getelementptr inbounds nuw %struct._header_field_info, ptr %97, i32 0, i32 2
  %99 = load i32, ptr %98, align 8
  %100 = icmp eq i32 %99, 14
  br i1 %100, label %176, label %101

101:                                              ; preds = %96
  %102 = load ptr, ptr %4, align 8
  %103 = getelementptr inbounds nuw %struct._header_field_info, ptr %102, i32 0, i32 2
  %104 = load i32, ptr %103, align 8
  %105 = icmp eq i32 %104, 15
  br i1 %105, label %176, label %106

106:                                              ; preds = %101
  %107 = load ptr, ptr %4, align 8
  %108 = getelementptr inbounds nuw %struct._header_field_info, ptr %107, i32 0, i32 2
  %109 = load i32, ptr %108, align 8
  %110 = icmp eq i32 %109, 16
  br i1 %110, label %176, label %111

111:                                              ; preds = %106
  %112 = load ptr, ptr %4, align 8
  %113 = getelementptr inbounds nuw %struct._header_field_info, ptr %112, i32 0, i32 2
  %114 = load i32, ptr %113, align 8
  %115 = icmp eq i32 %114, 17
  br i1 %115, label %176, label %116

116:                                              ; preds = %111
  %117 = load ptr, ptr %4, align 8
  %118 = getelementptr inbounds nuw %struct._header_field_info, ptr %117, i32 0, i32 2
  %119 = load i32, ptr %118, align 8
  %120 = icmp eq i32 %119, 18
  br i1 %120, label %176, label %121

121:                                              ; preds = %116
  %122 = load ptr, ptr %4, align 8
  %123 = getelementptr inbounds nuw %struct._header_field_info, ptr %122, i32 0, i32 2
  %124 = load i32, ptr %123, align 8
  %125 = icmp eq i32 %124, 19
  br i1 %125, label %176, label %126

126:                                              ; preds = %121
  %127 = load ptr, ptr %4, align 8
  %128 = getelementptr inbounds nuw %struct._header_field_info, ptr %127, i32 0, i32 2
  %129 = load i32, ptr %128, align 8
  %130 = icmp eq i32 %129, 3
  br i1 %130, label %176, label %131

131:                                              ; preds = %126
  %132 = load ptr, ptr %4, align 8
  %133 = getelementptr inbounds nuw %struct._header_field_info, ptr %132, i32 0, i32 2
  %134 = load i32, ptr %133, align 8
  %135 = icmp eq i32 %134, 4
  br i1 %135, label %176, label %136

136:                                              ; preds = %131
  %137 = load ptr, ptr %4, align 8
  %138 = getelementptr inbounds nuw %struct._header_field_info, ptr %137, i32 0, i32 2
  %139 = load i32, ptr %138, align 8
  %140 = icmp eq i32 %139, 5
  br i1 %140, label %176, label %141

141:                                              ; preds = %136
  %142 = load ptr, ptr %4, align 8
  %143 = getelementptr inbounds nuw %struct._header_field_info, ptr %142, i32 0, i32 2
  %144 = load i32, ptr %143, align 8
  %145 = icmp eq i32 %144, 6
  br i1 %145, label %176, label %146

146:                                              ; preds = %141
  %147 = load ptr, ptr %4, align 8
  %148 = getelementptr inbounds nuw %struct._header_field_info, ptr %147, i32 0, i32 2
  %149 = load i32, ptr %148, align 8
  %150 = icmp eq i32 %149, 7
  br i1 %150, label %176, label %151

151:                                              ; preds = %146
  %152 = load ptr, ptr %4, align 8
  %153 = getelementptr inbounds nuw %struct._header_field_info, ptr %152, i32 0, i32 2
  %154 = load i32, ptr %153, align 8
  %155 = icmp eq i32 %154, 35
  br i1 %155, label %176, label %156

156:                                              ; preds = %151
  %157 = load ptr, ptr %4, align 8
  %158 = getelementptr inbounds nuw %struct._header_field_info, ptr %157, i32 0, i32 2
  %159 = load i32, ptr %158, align 8
  %160 = icmp eq i32 %159, 8
  br i1 %160, label %176, label %161

161:                                              ; preds = %156
  %162 = load ptr, ptr %4, align 8
  %163 = getelementptr inbounds nuw %struct._header_field_info, ptr %162, i32 0, i32 2
  %164 = load i32, ptr %163, align 8
  %165 = icmp eq i32 %164, 9
  br i1 %165, label %176, label %166

166:                                              ; preds = %161
  %167 = load ptr, ptr %4, align 8
  %168 = getelementptr inbounds nuw %struct._header_field_info, ptr %167, i32 0, i32 2
  %169 = load i32, ptr %168, align 8
  %170 = icmp eq i32 %169, 10
  br i1 %170, label %176, label %171

171:                                              ; preds = %166
  %172 = load ptr, ptr %4, align 8
  %173 = getelementptr inbounds nuw %struct._header_field_info, ptr %172, i32 0, i32 2
  %174 = load i32, ptr %173, align 8
  %175 = icmp eq i32 %174, 11
  br i1 %175, label %176, label %177

176:                                              ; preds = %171, %166, %161, %156, %151, %146, %141, %136, %131, %126, %121, %116, %111, %106, %101, %96, %91, %86, %76, %71, %66, %61, %56, %51, %46, %41
  store i8 1, ptr %5, align 1
  store i32 2, ptr %7, align 4
  br label %182

177:                                              ; preds = %171, %81, %32
  br label %178

178:                                              ; preds = %177, %23, %16
  br label %179

179:                                              ; preds = %178
  %180 = load i32, ptr %6, align 4
  %181 = add i32 %180, 1
  store i32 %181, ptr %6, align 4
  br label %10, !llvm.loop !10

182:                                              ; preds = %176, %15
  call void @llvm.lifetime.end.p0(i64 4, ptr %6) #9
  br label %183

183:                                              ; preds = %182
  %184 = load ptr, ptr %3, align 8
  call void @g_strfreev(ptr noundef %184)
  %185 = load i8, ptr %5, align 1, !range !6, !noundef !7
  %186 = trunc i8 %185 to i1
  store i32 1, ptr %7, align 4
  call void @llvm.lifetime.end.p0(i64 1, ptr %5) #9
  call void @llvm.lifetime.end.p0(i64 8, ptr %4) #9
  call void @llvm.lifetime.end.p0(i64 8, ptr %3) #9
  ret i1 %186
}